; Function Attrs: mustprogress nofree nounwind uwtable
define dso_local noundef zeroext i1 @_ZN3igl8writeTGFENSt7__cxx1112basic_stringIcSt11char_traitsIcESaIcEEERKSt6vectorIS6_IdSaIdEESaIS8_EERKS6_IS6_IiSaIiEESaISE_EE(ptr noundef readonly captures(none) %0, ptr noundef nonnull readonly align 8 captures(none) dereferenceable(24) %1, ptr noundef nonnull readonly align 8 captures(none) dereferenceable(24) %2) local_unnamed_addr #0 personality ptr @__gxx_personality_v0 {
  %4 = load ptr, ptr %0, align 8, !tbaa !4
  %5 = tail call noalias ptr @fopen(ptr noundef %4, ptr noundef nonnull @.str)
  %6 = icmp ne ptr %5, null
  br i1 %6, label %.preheader, label %16

.preheader:                                       ; preds = %3
  %7 = getelementptr inbounds nuw i8, ptr %1, i64 8
  %8 = load ptr, ptr %7, align 8, !tbaa !12
  %9 = load ptr, ptr %1, align 8, !tbaa !15
  %10 = ptrtoint ptr %8 to i64
  %11 = ptrtoint ptr %9 to i64
  %12 = sub i64 %10, %11
  %13 = sdiv exact i64 %12, 24
  %14 = trunc i64 %13 to i32
  %15 = icmp sgt i32 %14, 0
  br i1 %15, label %.lr.ph, label %._crit_edge

16:                                               ; preds = %3
  %17 = load ptr, ptr %0, align 8, !tbaa !4
  %18 = tail call i32 (ptr, ...) @printf(ptr noundef nonnull dereferenceable(1) @.str.3, ptr noundef %17)
  br label %66

._crit_edge:                                      ; preds = %.lr.ph, %.preheader
  %19 = tail call i64 @fwrite(ptr nonnull @.str.5, i64 2, i64 1, ptr nonnull %5)
  %20 = getelementptr inbounds nuw i8, ptr %2, i64 8
  %21 = load ptr, ptr %20, align 8, !tbaa !16
  %22 = load ptr, ptr %2, align 8, !tbaa !19
  %23 = ptrtoint ptr %21 to i64
  %24 = ptrtoint ptr %22 to i64
  %25 = sub i64 %23, %24
  %26 = sdiv exact i64 %25, 24
  %27 = trunc i64 %26 to i32
  %28 = icmp sgt i32 %27, 0
  br i1 %28, label %.lr.ph29, label %._crit_edge30

.lr.ph:                                           ; preds = %.preheader, %.lr.ph
  %indvars.iv = phi i64 [ %indvars.iv.next, %.lr.ph ], [ 0, %.preheader ]
  %29 = phi ptr [ %40, %.lr.ph ], [ %9, %.preheader ]
  %indvars.iv.next = add nuw nsw i64 %indvars.iv, 1
  %30 = getelementptr inbounds nuw %"class.std::vector.4", ptr %29, i64 %indvars.iv
  %31 = load ptr, ptr %30, align 8, !tbaa !20
  %32 = load double, ptr %31, align 8, !tbaa !23
  %33 = getelementptr inbounds nuw i8, ptr %31, i64 8
  %34 = load double, ptr %33, align 8, !tbaa !23
  %35 = getelementptr inbounds nuw i8, ptr %31, i64 16
  %36 = load double, ptr %35, align 8, !tbaa !23
  %37 = trunc nuw nsw i64 %indvars.iv.next to i32
  %38 = tail call i32 (ptr, ptr, ...) @fprintf(ptr noundef nonnull %5, ptr noundef nonnull @.str.4, i32 noundef %37, double noundef %32, double noundef %34, double noundef %36) #11
  %39 = load ptr, ptr %7, align 8, !tbaa !12
  %40 = load ptr, ptr %1, align 8, !tbaa !15
  %41 = ptrtoint ptr %39 to i64
  %42 = ptrtoint ptr %40 to i64
  %43 = sub i64 %41, %42
  %44 = sdiv exact i64 %43, 24
  %sext = shl i64 %44, 32
  %45 = ashr exact i64 %sext, 32
  %46 = icmp slt i64 %indvars.iv.next, %45
  br i1 %46, label %.lr.ph, label %._crit_edge, !llvm.loop !25

._crit_edge30:                                    ; preds = %.lr.ph29, %._crit_edge
  %47 = tail call i64 @fwrite(ptr nonnull @.str.5, i64 2, i64 1, ptr nonnull %5)
  %48 = tail call i32 @fclose(ptr noundef nonnull %5)
  br label %66

.lr.ph29:                                         ; preds = %._crit_edge, %.lr.ph29
  %indvars.iv32 = phi i64 [ %indvars.iv.next33, %.lr.ph29 ], [ 0, %._crit_edge ]
  %49 = phi ptr [ %59, %.lr.ph29 ], [ %22, %._crit_edge ]
  %50 = getelementptr inbounds nuw %"class.std::vector.14", ptr %49, i64 %indvars.iv32
  %51 = load ptr, ptr %50, align 8, !tbaa !27
  %52 = load i32, ptr %51, align 4, !tbaa !30
  %53 = add nsw i32 %52, 1
  %54 = getelementptr inbounds nuw i8, ptr %51, i64 4
  %55 = load i32, ptr %54, align 4, !tbaa !30
  %56 = add nsw i32 %55, 1
  %57 = tail call i32 (ptr, ptr, ...) @fprintf(ptr noundef nonnull %5, ptr noundef nonnull @.str.6, i32 noundef %53, i32 noundef %56) #11
  %indvars.iv.next33 = add nuw nsw i64 %indvars.iv32, 1
  %58 = load ptr, ptr %20, align 8, !tbaa !16
  %59 = load ptr, ptr %2, align 8, !tbaa !19
  %60 = ptrtoint ptr %58 to i64
  %61 = ptrtoint ptr %59 to i64
  %62 = sub i64 %60, %61
  %63 = sdiv exact i64 %62, 24
  %sext35 = shl i64 %63, 32
  %64 = ashr exact i64 %sext35, 32
  %65 = icmp slt i64 %indvars.iv.next33, %64
  br i1 %65, label %.lr.ph29, label %._crit_edge30, !llvm.loop !32

66:                                               ; preds = %._crit_edge30, %16
  ret i1 %6
}